target datalayout = "e-m:e-p270:32:32-p271:32:32-p272:64:64-i64:64-i128:128-f80:128-n8:16:32:64-S128"
target triple = "x86_64-pc-linux-gnu"

%struct.mbedtls_ecp_curve_info = type { i32, i16, i16, ptr }

; Function Attrs: nounwind uwtable
define hidden ptr @mbedtls_ecp_curve_list() #0 {
  ret ptr @ecp_supported_curves
}

; Function Attrs: nounwind uwtable
define hidden ptr @mbedtls_ecp_curve_info_from_tls_id(i16 noundef zeroext %0) #0 {
  %2 = alloca ptr, align 8
  %3 = alloca i16, align 2
  %4 = alloca ptr, align 8
  %5 = alloca i32, align 4
  store i16 %0, ptr %3, align 2, !tbaa !19
  call void @llvm.lifetime.start.p0(i64 8, ptr %4) #11
  %6 = call ptr @mbedtls_ecp_curve_list()
  store ptr %6, ptr %4, align 8, !tbaa !9
  br label %7

7:                                                ; preds = %23, %1
  %8 = load ptr, ptr %4, align 8, !tbaa !9
  %9 = getelementptr inbounds nuw %struct.mbedtls_ecp_curve_info, ptr %8, i32 0, i32 0
  %10 = load i32, ptr %9, align 8, !tbaa !12
  %11 = icmp ne i32 %10, 0
  br i1 %11, label %12, label %26

12:                                               ; preds = %7
  %13 = load ptr, ptr %4, align 8, !tbaa !9
  %14 = getelementptr inbounds nuw %struct.mbedtls_ecp_curve_info, ptr %13, i32 0, i32 1
  %15 = load i16, ptr %14, align 4, !tbaa !20
  %16 = zext i16 %15 to i32
  %17 = load i16, ptr %3, align 2, !tbaa !19
  %18 = zext i16 %17 to i32
  %19 = icmp eq i32 %16, %18
  br i1 %19, label %20, label %22

20:                                               ; preds = %12
  %21 = load ptr, ptr %4, align 8, !tbaa !9
  store ptr %21, ptr %2, align 8
  store i32 1, ptr %5, align 4
  br label %27

22:                                               ; preds = %12
  br label %23

23:                                               ; preds = %22
  %24 = load ptr, ptr %4, align 8, !tbaa !9
  %25 = getelementptr inbounds nuw %struct.mbedtls_ecp_curve_info, ptr %24, i32 1
  store ptr %25, ptr %4, align 8, !tbaa !9
  br label %7, !llvm.loop !21

26:                                               ; preds = %7
  store ptr null, ptr %2, align 8
  store i32 1, ptr %5, align 4
  br label %27

27:                                               ; preds = %26, %20
  call void @llvm.lifetime.end.p0(i64 8, ptr %4) #11
  %28 = load ptr, ptr %2, align 8
  ret ptr %28
}

; Function Attrs: alwaysinline nounwind uwtable
define internal zeroext i16 @mbedtls_get_unaligned_uint16(ptr noundef %0) #5 {
  %2 = alloca ptr, align 8
  %3 = alloca i16, align 2
  store ptr %0, ptr %2, align 8, !tbaa !55
  call void @llvm.lifetime.start.p0(i64 2, ptr %3) #11
  %4 = load ptr, ptr %2, align 8, !tbaa !55
  call void @llvm.memcpy.p0.p0.i64(ptr align 2 %3, ptr align 1 %4, i64 2, i1 false)
  %5 = load i16, ptr %3, align 2, !tbaa !19
  call void @llvm.lifetime.end.p0(i64 2, ptr %3) #11
  ret i16 %5
}

; Function Attrs: nounwind uwtable
define hidden i32 @mbedtls_ecp_tls_read_group_id(ptr noundef %0, ptr noundef %1, i64 noundef %2) #0 {
  %4 = alloca i32, align 4
  %5 = alloca ptr, align 8
  %6 = alloca ptr, align 8
  %7 = alloca i64, align 8
  %8 = alloca i16, align 2
  %9 = alloca ptr, align 8
  %10 = alloca i32, align 4
  store ptr %0, ptr %5, align 8, !tbaa !55
  store ptr %1, ptr %6, align 8, !tbaa !52
  store i64 %2, ptr %7, align 8, !tbaa !7
  call void @llvm.lifetime.start.p0(i64 2, ptr %8) #11
  call void @llvm.lifetime.start.p0(i64 8, ptr %9) #11
  %11 = load i64, ptr %7, align 8, !tbaa !7
  %12 = icmp ult i64 %11, 3
  br i1 %12, label %13, label %14

13:                                               ; preds = %3
  store i32 -20352, ptr %4, align 4
  store i32 1, ptr %10, align 4
  br label %42

14:                                               ; preds = %3
  %15 = load ptr, ptr %6, align 8, !tbaa !52
  %16 = load ptr, ptr %15, align 8, !tbaa !22
  %17 = getelementptr inbounds nuw i8, ptr %16, i32 1
  store ptr %17, ptr %15, align 8, !tbaa !22
  %18 = load i8, ptr %16, align 1, !tbaa !49
  %19 = zext i8 %18 to i32
  %20 = icmp ne i32 %19, 3
  br i1 %20, label %21, label %22

21:                                               ; preds = %14
  store i32 -20352, ptr %4, align 4
  store i32 1, ptr %10, align 4
  br label %42

22:                                               ; preds = %14
  %23 = load ptr, ptr %6, align 8, !tbaa !52
  %24 = load ptr, ptr %23, align 8, !tbaa !22
  %25 = getelementptr inbounds i8, ptr %24, i64 0
  %26 = call zeroext i16 @mbedtls_get_unaligned_uint16(ptr noundef %25)
  %27 = call i16 @llvm.bswap.i16(i16 %26)
  %28 = zext i16 %27 to i32
  %29 = trunc i32 %28 to i16
  store i16 %29, ptr %8, align 2, !tbaa !19
  %30 = load ptr, ptr %6, align 8, !tbaa !52
  %31 = load ptr, ptr %30, align 8, !tbaa !22
  %32 = getelementptr inbounds i8, ptr %31, i64 2
  store ptr %32, ptr %30, align 8, !tbaa !22
  %33 = load i16, ptr %8, align 2, !tbaa !19
  %34 = call ptr @mbedtls_ecp_curve_info_from_tls_id(i16 noundef zeroext %33)
  store ptr %34, ptr %9, align 8, !tbaa !9
  %35 = icmp eq ptr %34, null
  br i1 %35, label %36, label %37

36:                                               ; preds = %22
  store i32 -20096, ptr %4, align 4
  store i32 1, ptr %10, align 4
  br label %42

37:                                               ; preds = %22
  %38 = load ptr, ptr %9, align 8, !tbaa !9
  %39 = getelementptr inbounds nuw %struct.mbedtls_ecp_curve_info, ptr %38, i32 0, i32 0
  %40 = load i32, ptr %39, align 8, !tbaa !12
  %41 = load ptr, ptr %5, align 8, !tbaa !55
  store i32 %40, ptr %41, align 4, !tbaa !3
  store i32 0, ptr %4, align 4
  store i32 1, ptr %10, align 4
  br label %42

42:                                               ; preds = %37, %36, %21, %13
  call void @llvm.lifetime.end.p0(i64 8, ptr %9) #11
  call void @llvm.lifetime.end.p0(i64 2, ptr %8) #11
  %43 = load i32, ptr %4, align 4
  ret i32 %43
}