; Function Attrs: nofree norecurse nosync nounwind memory(read, argmem: readwrite, inaccessiblemem: none) uwtable
define hidden range(i32 -20352, 1) i32 @mbedtls_ecp_tls_read_group_id(ptr noundef writeonly captures(none) %0, ptr noundef captures(none) %1, i64 noundef %2) local_unnamed_addr #10 {
  %4 = icmp ult i64 %2, 3
  br i1 %4, label %mbedtls_ecp_curve_info_from_tls_id.exit.thread, label %5

5:                                                ; preds = %3
  %6 = load ptr, ptr %1, align 8, !tbaa !35
  %7 = getelementptr inbounds nuw i8, ptr %6, i64 1
  store ptr %7, ptr %1, align 8, !tbaa !35
  %8 = load i8, ptr %6, align 1, !tbaa !34
  %.not = icmp eq i8 %8, 3
  br i1 %.not, label %9, label %mbedtls_ecp_curve_info_from_tls_id.exit.thread

9:                                                ; preds = %5
  %.0.copyload.i = load i16, ptr %7, align 1
  %10 = tail call i16 @llvm.bswap.i16(i16 %.0.copyload.i)
  %11 = getelementptr inbounds nuw i8, ptr %6, i64 3
  store ptr %11, ptr %1, align 8, !tbaa !35
  br label %12

12:                                               ; preds = %16, %9
  %.06.i = phi ptr [ @ecp_supported_curves, %9 ], [ %17, %16 ]
  %13 = getelementptr inbounds nuw i8, ptr %.06.i, i64 4
  %14 = load i16, ptr %13, align 4, !tbaa !15
  %15 = icmp eq i16 %14, %10
  br i1 %15, label %mbedtls_ecp_curve_info_from_tls_id.exit, label %16

16:                                               ; preds = %12
  %17 = getelementptr inbounds nuw i8, ptr %.06.i, i64 16
  %18 = load i32, ptr %17, align 8, !tbaa !7
  %.not.i = icmp eq i32 %18, 0
  br i1 %.not.i, label %mbedtls_ecp_curve_info_from_tls_id.exit.thread, label %12, !llvm.loop !16

mbedtls_ecp_curve_info_from_tls_id.exit:          ; preds = %12
  %19 = load i32, ptr %.06.i, align 8, !tbaa !7
  store i32 %19, ptr %0, align 4, !tbaa !3
  br label %mbedtls_ecp_curve_info_from_tls_id.exit.thread

mbedtls_ecp_curve_info_from_tls_id.exit.thread:   ; preds = %16, %5, %3, %mbedtls_ecp_curve_info_from_tls_id.exit
  %.0 = phi i32 [ 0, %mbedtls_ecp_curve_info_from_tls_id.exit ], [ -20352, %3 ], [ -20352, %5 ], [ -20096, %16 ]
  ret i32 %.0
}